; Function Attrs: uwtable
define noundef i32 @_ZThn8_NK8proxygen26PassThroughHTTPCodecFilter18numIncomingStreamsEv(ptr nocapture noundef readonly %this) unnamed_addr #4 align 2 {
entry:
  %callback_.i = getelementptr inbounds i8, ptr %this, i64 24
  %0 = load ptr, ptr %callback_.i, align 8
  %vtable.i = load ptr, ptr %0, align 8
  %vfn.i = getelementptr inbounds i8, ptr %vtable.i, i64 216
  %1 = load ptr, ptr %vfn.i, align 8
  %call.i = tail call noundef i32 %1(ptr noundef nonnull align 8 dereferenceable(8) %0)
  ret i32 %call.i
}